
Tuto_UART_REG_G031_002.elf:     file format elf32-littlearm

Sections:
Idx Name          Size      VMA       LMA       File off  Algn
  0 .isr_vector   000000c0  08000000  08000000  00010000  2**0
                  CONTENTS, ALLOC, LOAD, READONLY, DATA
  1 .text         000004c0  080000c0  080000c0  000100c0  2**2
                  CONTENTS, ALLOC, LOAD, READONLY, CODE
  2 .rodata       00000000  08000580  08000588  00010588  2**0
                  CONTENTS, ALLOC, LOAD, DATA
  3 .ARM.extab    00000000  08000580  08000580  00010588  2**0
                  CONTENTS
  4 .ARM          00000000  08000580  08000580  00010588  2**0
                  CONTENTS
  5 .preinit_array 00000000  08000580  08000588  00010588  2**0
                  CONTENTS, ALLOC, LOAD, DATA
  6 .init_array   00000004  08000580  08000580  00010580  2**2
                  CONTENTS, ALLOC, LOAD, DATA
  7 .fini_array   00000004  08000584  08000584  00010584  2**2
                  CONTENTS, ALLOC, LOAD, DATA
  8 .data         00000000  20000000  20000000  00010588  2**0
                  CONTENTS, ALLOC, LOAD, DATA
  9 .bss          00000020  20000000  08000588  00020000  2**2
                  ALLOC
 10 ._user_heap_stack 00000600  20000020  08000588  00020020  2**0
                  ALLOC
 11 .ARM.attributes 00000028  00000000  00000000  00010588  2**0
                  CONTENTS, READONLY
 12 .comment      00000043  00000000  00000000  000105b0  2**0
                  CONTENTS, READONLY
 13 .debug_info   000007e0  00000000  00000000  000105f3  2**0
                  CONTENTS, READONLY, DEBUGGING, OCTETS
 14 .debug_abbrev 00000287  00000000  00000000  00010dd3  2**0
                  CONTENTS, READONLY, DEBUGGING, OCTETS
 15 .debug_aranges 000000a8  00000000  00000000  00011060  2**3
                  CONTENTS, READONLY, DEBUGGING, OCTETS
 16 .debug_rnglists 0000006f  00000000  00000000  00011108  2**0
                  CONTENTS, READONLY, DEBUGGING, OCTETS
 17 .debug_macro  0000c3a4  00000000  00000000  00011177  2**0
                  CONTENTS, READONLY, DEBUGGING, OCTETS
 18 .debug_line   00000cc9  00000000  00000000  0001d51b  2**0
                  CONTENTS, READONLY, DEBUGGING, OCTETS
 19 .debug_str    00044a16  00000000  00000000  0001e1e4  2**0
                  CONTENTS, READONLY, DEBUGGING, OCTETS
 20 .debug_frame  0000019c  00000000  00000000  00062bfc  2**2
                  CONTENTS, READONLY, DEBUGGING, OCTETS
 21 .debug_line_str 00000058  00000000  00000000  00062d98  2**0
                  CONTENTS, READONLY, DEBUGGING, OCTETS

Disassembly of section .text:

080000c0 <__do_global_dtors_aux>:
 80000c0:	b510      	push	{r4, lr}
 80000c2:	4c06      	ldr	r4, [pc, #24]	; (80000dc <__do_global_dtors_aux+0x1c>)
 80000c4:	7823      	ldrb	r3, [r4, #0]
 80000c6:	2b00      	cmp	r3, #0
 80000c8:	d107      	bne.n	80000da <__do_global_dtors_aux+0x1a>
 80000ca:	4b05      	ldr	r3, [pc, #20]	; (80000e0 <__do_global_dtors_aux+0x20>)
 80000cc:	2b00      	cmp	r3, #0
 80000ce:	d002      	beq.n	80000d6 <__do_global_dtors_aux+0x16>
 80000d0:	4804      	ldr	r0, [pc, #16]	; (80000e4 <__do_global_dtors_aux+0x24>)
 80000d2:	e000      	b.n	80000d6 <__do_global_dtors_aux+0x16>
 80000d4:	bf00      	nop
 80000d6:	2301      	movs	r3, #1
 80000d8:	7023      	strb	r3, [r4, #0]
 80000da:	bd10      	pop	{r4, pc}
 80000dc:	20000000 	.word	0x20000000
 80000e0:	00000000 	.word	0x00000000
 80000e4:	08000568 	.word	0x08000568

080000e8 <frame_dummy>:
 80000e8:	4b04      	ldr	r3, [pc, #16]	; (80000fc <frame_dummy+0x14>)
 80000ea:	b510      	push	{r4, lr}
 80000ec:	2b00      	cmp	r3, #0
 80000ee:	d003      	beq.n	80000f8 <frame_dummy+0x10>
 80000f0:	4903      	ldr	r1, [pc, #12]	; (8000100 <frame_dummy+0x18>)
 80000f2:	4804      	ldr	r0, [pc, #16]	; (8000104 <frame_dummy+0x1c>)
 80000f4:	e000      	b.n	80000f8 <frame_dummy+0x10>
 80000f6:	bf00      	nop
 80000f8:	bd10      	pop	{r4, pc}
 80000fa:	46c0      	nop			; (mov r8, r8)
 80000fc:	00000000 	.word	0x00000000
 8000100:	20000004 	.word	0x20000004
 8000104:	08000568 	.word	0x08000568

08000108 <__udivsi3>:
 8000108:	2200      	movs	r2, #0
 800010a:	0843      	lsrs	r3, r0, #1
 800010c:	428b      	cmp	r3, r1
 800010e:	d374      	bcc.n	80001fa <__udivsi3+0xf2>
 8000110:	0903      	lsrs	r3, r0, #4
 8000112:	428b      	cmp	r3, r1
 8000114:	d35f      	bcc.n	80001d6 <__udivsi3+0xce>
 8000116:	0a03      	lsrs	r3, r0, #8
 8000118:	428b      	cmp	r3, r1
 800011a:	d344      	bcc.n	80001a6 <__udivsi3+0x9e>
 800011c:	0b03      	lsrs	r3, r0, #12
 800011e:	428b      	cmp	r3, r1
 8000120:	d328      	bcc.n	8000174 <__udivsi3+0x6c>
 8000122:	0c03      	lsrs	r3, r0, #16
 8000124:	428b      	cmp	r3, r1
 8000126:	d30d      	bcc.n	8000144 <__udivsi3+0x3c>
 8000128:	22ff      	movs	r2, #255	; 0xff
 800012a:	0209      	lsls	r1, r1, #8
 800012c:	ba12      	rev	r2, r2
 800012e:	0c03      	lsrs	r3, r0, #16
 8000130:	428b      	cmp	r3, r1
 8000132:	d302      	bcc.n	800013a <__udivsi3+0x32>
 8000134:	1212      	asrs	r2, r2, #8
 8000136:	0209      	lsls	r1, r1, #8
 8000138:	d065      	beq.n	8000206 <__udivsi3+0xfe>
 800013a:	0b03      	lsrs	r3, r0, #12
 800013c:	428b      	cmp	r3, r1
 800013e:	d319      	bcc.n	8000174 <__udivsi3+0x6c>
 8000140:	e000      	b.n	8000144 <__udivsi3+0x3c>
 8000142:	0a09      	lsrs	r1, r1, #8
 8000144:	0bc3      	lsrs	r3, r0, #15
 8000146:	428b      	cmp	r3, r1
 8000148:	d301      	bcc.n	800014e <__udivsi3+0x46>
 800014a:	03cb      	lsls	r3, r1, #15
 800014c:	1ac0      	subs	r0, r0, r3
 800014e:	4152      	adcs	r2, r2
 8000150:	0b83      	lsrs	r3, r0, #14
 8000152:	428b      	cmp	r3, r1
 8000154:	d301      	bcc.n	800015a <__udivsi3+0x52>
 8000156:	038b      	lsls	r3, r1, #14
 8000158:	1ac0      	subs	r0, r0, r3
 800015a:	4152      	adcs	r2, r2
 800015c:	0b43      	lsrs	r3, r0, #13
 800015e:	428b      	cmp	r3, r1
 8000160:	d301      	bcc.n	8000166 <__udivsi3+0x5e>
 8000162:	034b      	lsls	r3, r1, #13
 8000164:	1ac0      	subs	r0, r0, r3
 8000166:	4152      	adcs	r2, r2
 8000168:	0b03      	lsrs	r3, r0, #12
 800016a:	428b      	cmp	r3, r1
 800016c:	d301      	bcc.n	8000172 <__udivsi3+0x6a>
 800016e:	030b      	lsls	r3, r1, #12
 8000170:	1ac0      	subs	r0, r0, r3
 8000172:	4152      	adcs	r2, r2
 8000174:	0ac3      	lsrs	r3, r0, #11
 8000176:	428b      	cmp	r3, r1
 8000178:	d301      	bcc.n	800017e <__udivsi3+0x76>
 800017a:	02cb      	lsls	r3, r1, #11
 800017c:	1ac0      	subs	r0, r0, r3
 800017e:	4152      	adcs	r2, r2
 8000180:	0a83      	lsrs	r3, r0, #10
 8000182:	428b      	cmp	r3, r1
 8000184:	d301      	bcc.n	800018a <__udivsi3+0x82>
 8000186:	028b      	lsls	r3, r1, #10
 8000188:	1ac0      	subs	r0, r0, r3
 800018a:	4152      	adcs	r2, r2
 800018c:	0a43      	lsrs	r3, r0, #9
 800018e:	428b      	cmp	r3, r1
 8000190:	d301      	bcc.n	8000196 <__udivsi3+0x8e>
 8000192:	024b      	lsls	r3, r1, #9
 8000194:	1ac0      	subs	r0, r0, r3
 8000196:	4152      	adcs	r2, r2
 8000198:	0a03      	lsrs	r3, r0, #8
 800019a:	428b      	cmp	r3, r1
 800019c:	d301      	bcc.n	80001a2 <__udivsi3+0x9a>
 800019e:	020b      	lsls	r3, r1, #8
 80001a0:	1ac0      	subs	r0, r0, r3
 80001a2:	4152      	adcs	r2, r2
 80001a4:	d2cd      	bcs.n	8000142 <__udivsi3+0x3a>
 80001a6:	09c3      	lsrs	r3, r0, #7
 80001a8:	428b      	cmp	r3, r1
 80001aa:	d301      	bcc.n	80001b0 <__udivsi3+0xa8>
 80001ac:	01cb      	lsls	r3, r1, #7
 80001ae:	1ac0      	subs	r0, r0, r3
 80001b0:	4152      	adcs	r2, r2
 80001b2:	0983      	lsrs	r3, r0, #6
 80001b4:	428b      	cmp	r3, r1
 80001b6:	d301      	bcc.n	80001bc <__udivsi3+0xb4>
 80001b8:	018b      	lsls	r3, r1, #6
 80001ba:	1ac0      	subs	r0, r0, r3
 80001bc:	4152      	adcs	r2, r2
 80001be:	0943      	lsrs	r3, r0, #5
 80001c0:	428b      	cmp	r3, r1
 80001c2:	d301      	bcc.n	80001c8 <__udivsi3+0xc0>
 80001c4:	014b      	lsls	r3, r1, #5
 80001c6:	1ac0      	subs	r0, r0, r3
 80001c8:	4152      	adcs	r2, r2
 80001ca:	0903      	lsrs	r3, r0, #4
 80001cc:	428b      	cmp	r3, r1
 80001ce:	d301      	bcc.n	80001d4 <__udivsi3+0xcc>
 80001d0:	010b      	lsls	r3, r1, #4
 80001d2:	1ac0      	subs	r0, r0, r3
 80001d4:	4152      	adcs	r2, r2
 80001d6:	08c3      	lsrs	r3, r0, #3
 80001d8:	428b      	cmp	r3, r1
 80001da:	d301      	bcc.n	80001e0 <__udivsi3+0xd8>
 80001dc:	00cb      	lsls	r3, r1, #3
 80001de:	1ac0      	subs	r0, r0, r3
 80001e0:	4152      	adcs	r2, r2
 80001e2:	0883      	lsrs	r3, r0, #2
 80001e4:	428b      	cmp	r3, r1
 80001e6:	d301      	bcc.n	80001ec <__udivsi3+0xe4>
 80001e8:	008b      	lsls	r3, r1, #2
 80001ea:	1ac0      	subs	r0, r0, r3
 80001ec:	4152      	adcs	r2, r2
 80001ee:	0843      	lsrs	r3, r0, #1
 80001f0:	428b      	cmp	r3, r1
 80001f2:	d301      	bcc.n	80001f8 <__udivsi3+0xf0>
 80001f4:	004b      	lsls	r3, r1, #1
 80001f6:	1ac0      	subs	r0, r0, r3
 80001f8:	4152      	adcs	r2, r2
 80001fa:	1a41      	subs	r1, r0, r1
 80001fc:	d200      	bcs.n	8000200 <__udivsi3+0xf8>
 80001fe:	4601      	mov	r1, r0
 8000200:	4152      	adcs	r2, r2
 8000202:	4610      	mov	r0, r2
 8000204:	4770      	bx	lr
 8000206:	e7ff      	b.n	8000208 <__udivsi3+0x100>
 8000208:	b501      	push	{r0, lr}
 800020a:	2000      	movs	r0, #0
 800020c:	f000 f806 	bl	800021c <__aeabi_idiv0>
 8000210:	bd02      	pop	{r1, pc}
 8000212:	46c0      	nop			; (mov r8, r8)

08000214 <__aeabi_uidivmod>:
 8000214:	2900      	cmp	r1, #0
 8000216:	d0f7      	beq.n	8000208 <__udivsi3+0x100>
 8000218:	e776      	b.n	8000108 <__udivsi3>
 800021a:	4770      	bx	lr

0800021c <__aeabi_idiv0>:
 800021c:	4770      	bx	lr
 800021e:	46c0      	nop			; (mov r8, r8)

08000220 <main>:
uint8_t A = 0x41 ;
uint8_t rx_byte_uart1 = 0x00 ;
uint8_t tx_byte_to_uart2 = 0x41 ;

int main(void)
{
 8000220:	b580      	push	{r7, lr}
 8000222:	af00      	add	r7, sp, #0
	my_uart2_init () ;
 8000224:	f000 f8b0 	bl	8000388 <my_uart2_init>
	my_uart2_on ( MY_G031_SYSCLOCK , MY_UART2_BAUDRATE ) ;
 8000228:	23e1      	movs	r3, #225	; 0xe1
 800022a:	025b      	lsls	r3, r3, #9
 800022c:	4a17      	ldr	r2, [pc, #92]	; (800028c <main+0x6c>)
 800022e:	0019      	movs	r1, r3
 8000230:	0010      	movs	r0, r2
 8000232:	f000 f941 	bl	80004b8 <my_uart2_on>
	my_uart1_init () ;
 8000236:	f000 f86d 	bl	8000314 <my_uart1_init>
	my_uart1_on ( MY_G031_SYSCLOCK , MY_UART1_BAUDRATE ) ;
 800023a:	23e1      	movs	r3, #225	; 0xe1
 800023c:	025b      	lsls	r3, r3, #9
 800023e:	4a13      	ldr	r2, [pc, #76]	; (800028c <main+0x6c>)
 8000240:	0019      	movs	r1, r3
 8000242:	0010      	movs	r0, r2
 8000244:	f000 f904 	bl	8000450 <my_uart1_on>
	while ( !( USART2->ISR & USART_ISR_TXE_TXFNF ) )
 8000248:	46c0      	nop			; (mov r8, r8)
 800024a:	4b11      	ldr	r3, [pc, #68]	; (8000290 <main+0x70>)
 800024c:	69db      	ldr	r3, [r3, #28]
 800024e:	2280      	movs	r2, #128	; 0x80
 8000250:	4013      	ands	r3, r2
 8000252:	d0fa      	beq.n	800024a <main+0x2a>
	{
		;
	}
	USART2->TDR = '@' ;
 8000254:	4b0e      	ldr	r3, [pc, #56]	; (8000290 <main+0x70>)
 8000256:	2240      	movs	r2, #64	; 0x40
 8000258:	629a      	str	r2, [r3, #40]	; 0x28
	while ( !( USART1->ISR & USART_ISR_TXE_TXFNF ) )
 800025a:	46c0      	nop			; (mov r8, r8)
 800025c:	4b0d      	ldr	r3, [pc, #52]	; (8000294 <main+0x74>)
 800025e:	69db      	ldr	r3, [r3, #28]
 8000260:	2280      	movs	r2, #128	; 0x80
 8000262:	4013      	ands	r3, r2
 8000264:	d0fa      	beq.n	800025c <main+0x3c>
	{
		;
	}
	USART1->TDR = '@' ;
 8000266:	4b0b      	ldr	r3, [pc, #44]	; (8000294 <main+0x74>)
 8000268:	2240      	movs	r2, #64	; 0x40
 800026a:	629a      	str	r2, [r3, #40]	; 0x28
	//config_my_tim16 ( MY_G031_SYSCLOCK ) ;
	//start_my_tim16 ( (uint16_t) 1000 ) ;
	/* Loop forever */
	while ( 1 )
	{
		rx_byte_uart1 = rx_byte_my_uart2 () ;
 800026c:	f000 f8c4 	bl	80003f8 <rx_byte_my_uart2>
 8000270:	0003      	movs	r3, r0
 8000272:	001a      	movs	r2, r3
 8000274:	4b08      	ldr	r3, [pc, #32]	; (8000298 <main+0x78>)
 8000276:	701a      	strb	r2, [r3, #0]
		if ( rx_byte_uart1 )
 8000278:	4b07      	ldr	r3, [pc, #28]	; (8000298 <main+0x78>)
 800027a:	781b      	ldrb	r3, [r3, #0]
 800027c:	2b00      	cmp	r3, #0
 800027e:	d0f5      	beq.n	800026c <main+0x4c>
		{
			tx_byte_my_uart2 ( &rx_byte_uart1 ) ;
 8000280:	4b05      	ldr	r3, [pc, #20]	; (8000298 <main+0x78>)
 8000282:	0018      	movs	r0, r3
 8000284:	f000 f8d0 	bl	8000428 <tx_byte_my_uart2>
		rx_byte_uart1 = rx_byte_my_uart2 () ;
 8000288:	e7f0      	b.n	800026c <main+0x4c>
 800028a:	46c0      	nop			; (mov r8, r8)
 800028c:	00f42400 	.word	0x00f42400
 8000290:	40004400 	.word	0x40004400
 8000294:	40013800 	.word	0x40013800
 8000298:	2000001d 	.word	0x2000001d

0800029c <TIM16_IRQHandler>:
		*/
	}
}

void TIM16_IRQHandler ( void )
{
 800029c:	b580      	push	{r7, lr}
 800029e:	af00      	add	r7, sp, #0
	my_tim16_up = 1 ;
 80002a0:	4b05      	ldr	r3, [pc, #20]	; (80002b8 <TIM16_IRQHandler+0x1c>)
 80002a2:	2201      	movs	r2, #1
 80002a4:	701a      	strb	r2, [r3, #0]
	TIM16->SR &= ~TIM_SR_UIF ;		//Clean UIF Flag
 80002a6:	4b05      	ldr	r3, [pc, #20]	; (80002bc <TIM16_IRQHandler+0x20>)
 80002a8:	691a      	ldr	r2, [r3, #16]
 80002aa:	4b04      	ldr	r3, [pc, #16]	; (80002bc <TIM16_IRQHandler+0x20>)
 80002ac:	2101      	movs	r1, #1
 80002ae:	438a      	bics	r2, r1
 80002b0:	611a      	str	r2, [r3, #16]
}
 80002b2:	46c0      	nop			; (mov r8, r8)
 80002b4:	46bd      	mov	sp, r7
 80002b6:	bd80      	pop	{r7, pc}
 80002b8:	2000001c 	.word	0x2000001c
 80002bc:	40014400 	.word	0x40014400

080002c0 <Reset_Handler>:

  .section .text.Reset_Handler
  .weak Reset_Handler
  .type Reset_Handler, %function
Reset_Handler:
  ldr   r0, =_estack
 80002c0:	480d      	ldr	r0, [pc, #52]	; (80002f8 <LoopForever+0x2>)
  mov   sp, r0          /* set stack pointer */
 80002c2:	4685      	mov	sp, r0
/* Call the clock system initialization function.*/
  bl  SystemInit
 80002c4:	e000      	b.n	80002c8 <Reset_Handler+0x8>
 80002c6:	bf00      	nop

/* Copy the data segment initializers from flash to SRAM */
  ldr r0, =_sdata
 80002c8:	480c      	ldr	r0, [pc, #48]	; (80002fc <LoopForever+0x6>)
  ldr r1, =_edata
 80002ca:	490d      	ldr	r1, [pc, #52]	; (8000300 <LoopForever+0xa>)
  ldr r2, =_sidata
 80002cc:	4a0d      	ldr	r2, [pc, #52]	; (8000304 <LoopForever+0xe>)
  movs r3, #0
 80002ce:	2300      	movs	r3, #0
  b LoopCopyDataInit
 80002d0:	e002      	b.n	80002d8 <LoopCopyDataInit>

080002d2 <CopyDataInit>:

CopyDataInit:
  ldr r4, [r2, r3]
 80002d2:	58d4      	ldr	r4, [r2, r3]
  str r4, [r0, r3]
 80002d4:	50c4      	str	r4, [r0, r3]
  adds r3, r3, #4
 80002d6:	3304      	adds	r3, #4

080002d8 <LoopCopyDataInit>:

LoopCopyDataInit:
  adds r4, r0, r3
 80002d8:	18c4      	adds	r4, r0, r3
  cmp r4, r1
 80002da:	428c      	cmp	r4, r1
  bcc CopyDataInit
 80002dc:	d3f9      	bcc.n	80002d2 <CopyDataInit>

/* Zero fill the bss segment. */
  ldr r2, =_sbss
 80002de:	4a0a      	ldr	r2, [pc, #40]	; (8000308 <LoopForever+0x12>)
  ldr r4, =_ebss
 80002e0:	4c0a      	ldr	r4, [pc, #40]	; (800030c <LoopForever+0x16>)
  movs r3, #0
 80002e2:	2300      	movs	r3, #0
  b LoopFillZerobss
 80002e4:	e001      	b.n	80002ea <LoopFillZerobss>

080002e6 <FillZerobss>:

FillZerobss:
  str  r3, [r2]
 80002e6:	6013      	str	r3, [r2, #0]
  adds r2, r2, #4
 80002e8:	3204      	adds	r2, #4

080002ea <LoopFillZerobss>:

LoopFillZerobss:
  cmp r2, r4
 80002ea:	42a2      	cmp	r2, r4
  bcc FillZerobss
 80002ec:	d3fb      	bcc.n	80002e6 <FillZerobss>

/* Call static constructors */
  bl __libc_init_array
 80002ee:	f000 f917 	bl	8000520 <__libc_init_array>
/* Call the application's entry point.*/
  bl main
 80002f2:	f7ff ff95 	bl	8000220 <main>

080002f6 <LoopForever>:

LoopForever:
  b LoopForever
 80002f6:	e7fe      	b.n	80002f6 <LoopForever>
  ldr   r0, =_estack
 80002f8:	20002000 	.word	0x20002000
  ldr r0, =_sdata
 80002fc:	20000000 	.word	0x20000000
  ldr r1, =_edata
 8000300:	20000000 	.word	0x20000000
  ldr r2, =_sidata
 8000304:	08000588 	.word	0x08000588
  ldr r2, =_sbss
 8000308:	20000000 	.word	0x20000000
  ldr r4, =_ebss
 800030c:	20000020 	.word	0x20000020

08000310 <ADC_COMP_IRQHandler>:
 * @retval : None
*/
  .section .text.Default_Handler,"ax",%progbits
Default_Handler:
Infinite_Loop:
  b Infinite_Loop
 8000310:	e7fe      	b.n	8000310 <ADC_COMP_IRQHandler>
	...

08000314 <my_uart1_init>:
 */

#include "my_uart.h"

void my_uart1_init ( void )
{
 8000314:	b580      	push	{r7, lr}
 8000316:	af00      	add	r7, sp, #0
	RCC->IOPENR 	|= RCC_IOPENR_GPIOAEN ;		// Activate clock in GPIOA
 8000318:	4b18      	ldr	r3, [pc, #96]	; (800037c <my_uart1_init+0x68>)
 800031a:	6b5a      	ldr	r2, [r3, #52]	; 0x34
 800031c:	4b17      	ldr	r3, [pc, #92]	; (800037c <my_uart1_init+0x68>)
 800031e:	2101      	movs	r1, #1
 8000320:	430a      	orrs	r2, r1
 8000322:	635a      	str	r2, [r3, #52]	; 0x34
	GPIOA->MODER 	&= ~GPIO_MODER_MODE9_0 ; 	// Set Alternate Function (AF) for USART1_TX
 8000324:	23a0      	movs	r3, #160	; 0xa0
 8000326:	05db      	lsls	r3, r3, #23
 8000328:	681a      	ldr	r2, [r3, #0]
 800032a:	23a0      	movs	r3, #160	; 0xa0
 800032c:	05db      	lsls	r3, r3, #23
 800032e:	4914      	ldr	r1, [pc, #80]	; (8000380 <my_uart1_init+0x6c>)
 8000330:	400a      	ands	r2, r1
 8000332:	601a      	str	r2, [r3, #0]
	GPIOA->MODER 	&= ~GPIO_MODER_MODE10_0 ; 	// Set Alternate Function (AF) for USART1_RX
 8000334:	23a0      	movs	r3, #160	; 0xa0
 8000336:	05db      	lsls	r3, r3, #23
 8000338:	681a      	ldr	r2, [r3, #0]
 800033a:	23a0      	movs	r3, #160	; 0xa0
 800033c:	05db      	lsls	r3, r3, #23
 800033e:	4911      	ldr	r1, [pc, #68]	; (8000384 <my_uart1_init+0x70>)
 8000340:	400a      	ands	r2, r1
 8000342:	601a      	str	r2, [r3, #0]
	GPIOA->AFR[1]	|= GPIO_AFRH_AFSEL9_0 ;  	// ALERT! AFRH is AFR[1]. Choose AF1
 8000344:	23a0      	movs	r3, #160	; 0xa0
 8000346:	05db      	lsls	r3, r3, #23
 8000348:	6a5a      	ldr	r2, [r3, #36]	; 0x24
 800034a:	23a0      	movs	r3, #160	; 0xa0
 800034c:	05db      	lsls	r3, r3, #23
 800034e:	2110      	movs	r1, #16
 8000350:	430a      	orrs	r2, r1
 8000352:	625a      	str	r2, [r3, #36]	; 0x24
	GPIOA->AFR[1]	|= GPIO_AFRH_AFSEL10_0 ;  	// ALERT! AFRH is AFR[1]. Choose AF1
 8000354:	23a0      	movs	r3, #160	; 0xa0
 8000356:	05db      	lsls	r3, r3, #23
 8000358:	6a5a      	ldr	r2, [r3, #36]	; 0x24
 800035a:	23a0      	movs	r3, #160	; 0xa0
 800035c:	05db      	lsls	r3, r3, #23
 800035e:	2180      	movs	r1, #128	; 0x80
 8000360:	0049      	lsls	r1, r1, #1
 8000362:	430a      	orrs	r2, r1
 8000364:	625a      	str	r2, [r3, #36]	; 0x24
	GPIOA->OTYPER	|= GPIO_OTYPER_OT3 ; 		// Choose Open_drain for RX to avoid P-MOS transistors problems and assuming push-pull expected on device
 8000366:	23a0      	movs	r3, #160	; 0xa0
 8000368:	05db      	lsls	r3, r3, #23
 800036a:	685a      	ldr	r2, [r3, #4]
 800036c:	23a0      	movs	r3, #160	; 0xa0
 800036e:	05db      	lsls	r3, r3, #23
 8000370:	2108      	movs	r1, #8
 8000372:	430a      	orrs	r2, r1
 8000374:	605a      	str	r2, [r3, #4]
}
 8000376:	46c0      	nop			; (mov r8, r8)
 8000378:	46bd      	mov	sp, r7
 800037a:	bd80      	pop	{r7, pc}
 800037c:	40021000 	.word	0x40021000
 8000380:	fffbffff 	.word	0xfffbffff
 8000384:	ffefffff 	.word	0xffefffff

08000388 <my_uart2_init>:

void my_uart2_init ( void )
{
 8000388:	b580      	push	{r7, lr}
 800038a:	af00      	add	r7, sp, #0
	RCC->IOPENR 	|= RCC_IOPENR_GPIOAEN ;		// Activate clock in GPIOA
 800038c:	4b19      	ldr	r3, [pc, #100]	; (80003f4 <my_uart2_init+0x6c>)
 800038e:	6b5a      	ldr	r2, [r3, #52]	; 0x34
 8000390:	4b18      	ldr	r3, [pc, #96]	; (80003f4 <my_uart2_init+0x6c>)
 8000392:	2101      	movs	r1, #1
 8000394:	430a      	orrs	r2, r1
 8000396:	635a      	str	r2, [r3, #52]	; 0x34
	GPIOA->MODER 	&= ~GPIO_MODER_MODE2_0 ; 	// Set Alternate Function (AF) for USART2_TX
 8000398:	23a0      	movs	r3, #160	; 0xa0
 800039a:	05db      	lsls	r3, r3, #23
 800039c:	681a      	ldr	r2, [r3, #0]
 800039e:	23a0      	movs	r3, #160	; 0xa0
 80003a0:	05db      	lsls	r3, r3, #23
 80003a2:	2110      	movs	r1, #16
 80003a4:	438a      	bics	r2, r1
 80003a6:	601a      	str	r2, [r3, #0]
	GPIOA->MODER 	&= ~GPIO_MODER_MODE3_0 ; 	// Set Alternate Function (AF) for USART2_RX
 80003a8:	23a0      	movs	r3, #160	; 0xa0
 80003aa:	05db      	lsls	r3, r3, #23
 80003ac:	681a      	ldr	r2, [r3, #0]
 80003ae:	23a0      	movs	r3, #160	; 0xa0
 80003b0:	05db      	lsls	r3, r3, #23
 80003b2:	2140      	movs	r1, #64	; 0x40
 80003b4:	438a      	bics	r2, r1
 80003b6:	601a      	str	r2, [r3, #0]
	GPIOA->AFR[0]	|= GPIO_AFRL_AFSEL2_0 ;  	// ALERT! AFRL is AFR[0]. Choose AF1
 80003b8:	23a0      	movs	r3, #160	; 0xa0
 80003ba:	05db      	lsls	r3, r3, #23
 80003bc:	6a1a      	ldr	r2, [r3, #32]
 80003be:	23a0      	movs	r3, #160	; 0xa0
 80003c0:	05db      	lsls	r3, r3, #23
 80003c2:	2180      	movs	r1, #128	; 0x80
 80003c4:	0049      	lsls	r1, r1, #1
 80003c6:	430a      	orrs	r2, r1
 80003c8:	621a      	str	r2, [r3, #32]
	GPIOA->AFR[0]	|= GPIO_AFRL_AFSEL3_0 ;  	// ALERT! AFRL is AFR[0]. Choose AF1
 80003ca:	23a0      	movs	r3, #160	; 0xa0
 80003cc:	05db      	lsls	r3, r3, #23
 80003ce:	6a1a      	ldr	r2, [r3, #32]
 80003d0:	23a0      	movs	r3, #160	; 0xa0
 80003d2:	05db      	lsls	r3, r3, #23
 80003d4:	2180      	movs	r1, #128	; 0x80
 80003d6:	0149      	lsls	r1, r1, #5
 80003d8:	430a      	orrs	r2, r1
 80003da:	621a      	str	r2, [r3, #32]
	GPIOA->OTYPER	|= GPIO_OTYPER_OT3 ; 		// Choose Open_drain for RX to avoid P-MOS transistors problems and assuming push-pull expected on device
 80003dc:	23a0      	movs	r3, #160	; 0xa0
 80003de:	05db      	lsls	r3, r3, #23
 80003e0:	685a      	ldr	r2, [r3, #4]
 80003e2:	23a0      	movs	r3, #160	; 0xa0
 80003e4:	05db      	lsls	r3, r3, #23
 80003e6:	2108      	movs	r1, #8
 80003e8:	430a      	orrs	r2, r1
 80003ea:	605a      	str	r2, [r3, #4]
}
 80003ec:	46c0      	nop			; (mov r8, r8)
 80003ee:	46bd      	mov	sp, r7
 80003f0:	bd80      	pop	{r7, pc}
 80003f2:	46c0      	nop			; (mov r8, r8)
 80003f4:	40021000 	.word	0x40021000

080003f8 <rx_byte_my_uart2>:
	}
	return rx_byte ;
}

uint8_t rx_byte_my_uart2 ( void )
{
 80003f8:	b580      	push	{r7, lr}
 80003fa:	b082      	sub	sp, #8
 80003fc:	af00      	add	r7, sp, #0
	uint8_t rx_byte = 0 ;
 80003fe:	1dfb      	adds	r3, r7, #7
 8000400:	2200      	movs	r2, #0
 8000402:	701a      	strb	r2, [r3, #0]
	if ( USART2->ISR & USART_ISR_RXNE_RXFNE )
 8000404:	4b07      	ldr	r3, [pc, #28]	; (8000424 <rx_byte_my_uart2+0x2c>)
 8000406:	69db      	ldr	r3, [r3, #28]
 8000408:	2220      	movs	r2, #32
 800040a:	4013      	ands	r3, r2
 800040c:	d003      	beq.n	8000416 <rx_byte_my_uart2+0x1e>
	{
		rx_byte = USART2->RDR ;
 800040e:	4b05      	ldr	r3, [pc, #20]	; (8000424 <rx_byte_my_uart2+0x2c>)
 8000410:	6a5a      	ldr	r2, [r3, #36]	; 0x24
 8000412:	1dfb      	adds	r3, r7, #7
 8000414:	701a      	strb	r2, [r3, #0]
	}
	return rx_byte ;
 8000416:	1dfb      	adds	r3, r7, #7
 8000418:	781b      	ldrb	r3, [r3, #0]
}
 800041a:	0018      	movs	r0, r3
 800041c:	46bd      	mov	sp, r7
 800041e:	b002      	add	sp, #8
 8000420:	bd80      	pop	{r7, pc}
 8000422:	46c0      	nop			; (mov r8, r8)
 8000424:	40004400 	.word	0x40004400

08000428 <tx_byte_my_uart2>:
		USART1->TDR = *tx_byte ;
	}
}

void tx_byte_my_uart2 ( uint8_t* tx_byte )
{
 8000428:	b580      	push	{r7, lr}
 800042a:	b082      	sub	sp, #8
 800042c:	af00      	add	r7, sp, #0
 800042e:	6078      	str	r0, [r7, #4]
	if ( USART2->ISR & USART_ISR_TXE_TXFNF )
 8000430:	4b06      	ldr	r3, [pc, #24]	; (800044c <tx_byte_my_uart2+0x24>)
 8000432:	69db      	ldr	r3, [r3, #28]
 8000434:	2280      	movs	r2, #128	; 0x80
 8000436:	4013      	ands	r3, r2
 8000438:	d003      	beq.n	8000442 <tx_byte_my_uart2+0x1a>
	{
		USART2->TDR = *tx_byte ;
 800043a:	687b      	ldr	r3, [r7, #4]
 800043c:	781a      	ldrb	r2, [r3, #0]
 800043e:	4b03      	ldr	r3, [pc, #12]	; (800044c <tx_byte_my_uart2+0x24>)
 8000440:	629a      	str	r2, [r3, #40]	; 0x28
	}
}
 8000442:	46c0      	nop			; (mov r8, r8)
 8000444:	46bd      	mov	sp, r7
 8000446:	b002      	add	sp, #8
 8000448:	bd80      	pop	{r7, pc}
 800044a:	46c0      	nop			; (mov r8, r8)
 800044c:	40004400 	.word	0x40004400

08000450 <my_uart1_on>:

void my_uart1_on ( uint32_t my_sysclock , uint32_t baudrate )
{
 8000450:	b580      	push	{r7, lr}
 8000452:	b082      	sub	sp, #8
 8000454:	af00      	add	r7, sp, #0
 8000456:	6078      	str	r0, [r7, #4]
 8000458:	6039      	str	r1, [r7, #0]
	RCC->IOPENR 	|= RCC_IOPENR_GPIOAEN ;		// Activate clock in GPIOA
 800045a:	4b15      	ldr	r3, [pc, #84]	; (80004b0 <my_uart1_on+0x60>)
 800045c:	6b5a      	ldr	r2, [r3, #52]	; 0x34
 800045e:	4b14      	ldr	r3, [pc, #80]	; (80004b0 <my_uart1_on+0x60>)
 8000460:	2101      	movs	r1, #1
 8000462:	430a      	orrs	r2, r1
 8000464:	635a      	str	r2, [r3, #52]	; 0x34
	RCC->APBENR2	|= RCC_APBENR2_USART1EN ;
 8000466:	4b12      	ldr	r3, [pc, #72]	; (80004b0 <my_uart1_on+0x60>)
 8000468:	6c1a      	ldr	r2, [r3, #64]	; 0x40
 800046a:	4b11      	ldr	r3, [pc, #68]	; (80004b0 <my_uart1_on+0x60>)
 800046c:	2180      	movs	r1, #128	; 0x80
 800046e:	01c9      	lsls	r1, r1, #7
 8000470:	430a      	orrs	r2, r1
 8000472:	641a      	str	r2, [r3, #64]	; 0x40
	USART1->BRR 	=  (uint16_t) ( my_sysclock / baudrate ) ;			// Activate clock for UART
 8000474:	6839      	ldr	r1, [r7, #0]
 8000476:	6878      	ldr	r0, [r7, #4]
 8000478:	f7ff fe46 	bl	8000108 <__udivsi3>
 800047c:	0003      	movs	r3, r0
 800047e:	b29a      	uxth	r2, r3
 8000480:	4b0c      	ldr	r3, [pc, #48]	; (80004b4 <my_uart1_on+0x64>)
 8000482:	60da      	str	r2, [r3, #12]
	USART1->CR1 	|=  USART_CR1_UE ;
 8000484:	4b0b      	ldr	r3, [pc, #44]	; (80004b4 <my_uart1_on+0x64>)
 8000486:	681a      	ldr	r2, [r3, #0]
 8000488:	4b0a      	ldr	r3, [pc, #40]	; (80004b4 <my_uart1_on+0x64>)
 800048a:	2101      	movs	r1, #1
 800048c:	430a      	orrs	r2, r1
 800048e:	601a      	str	r2, [r3, #0]
	USART1->CR1 	|=  USART_CR1_TE ;
 8000490:	4b08      	ldr	r3, [pc, #32]	; (80004b4 <my_uart1_on+0x64>)
 8000492:	681a      	ldr	r2, [r3, #0]
 8000494:	4b07      	ldr	r3, [pc, #28]	; (80004b4 <my_uart1_on+0x64>)
 8000496:	2108      	movs	r1, #8
 8000498:	430a      	orrs	r2, r1
 800049a:	601a      	str	r2, [r3, #0]
	USART1->CR1 	|=  USART_CR1_RE ;
 800049c:	4b05      	ldr	r3, [pc, #20]	; (80004b4 <my_uart1_on+0x64>)
 800049e:	681a      	ldr	r2, [r3, #0]
 80004a0:	4b04      	ldr	r3, [pc, #16]	; (80004b4 <my_uart1_on+0x64>)
 80004a2:	2104      	movs	r1, #4
 80004a4:	430a      	orrs	r2, r1
 80004a6:	601a      	str	r2, [r3, #0]
}
 80004a8:	46c0      	nop			; (mov r8, r8)
 80004aa:	46bd      	mov	sp, r7
 80004ac:	b002      	add	sp, #8
 80004ae:	bd80      	pop	{r7, pc}
 80004b0:	40021000 	.word	0x40021000
 80004b4:	40013800 	.word	0x40013800

080004b8 <my_uart2_on>:

void my_uart2_on ( uint32_t my_sysclock , uint32_t baudrate )
{
 80004b8:	b580      	push	{r7, lr}
 80004ba:	b082      	sub	sp, #8
 80004bc:	af00      	add	r7, sp, #0
 80004be:	6078      	str	r0, [r7, #4]
 80004c0:	6039      	str	r1, [r7, #0]
	RCC->IOPENR 	|= RCC_IOPENR_GPIOAEN ;		// Activate clock in GPIOA
 80004c2:	4b15      	ldr	r3, [pc, #84]	; (8000518 <my_uart2_on+0x60>)
 80004c4:	6b5a      	ldr	r2, [r3, #52]	; 0x34
 80004c6:	4b14      	ldr	r3, [pc, #80]	; (8000518 <my_uart2_on+0x60>)
 80004c8:	2101      	movs	r1, #1
 80004ca:	430a      	orrs	r2, r1
 80004cc:	635a      	str	r2, [r3, #52]	; 0x34
	RCC->APBENR1	|= RCC_APBENR1_USART2EN ;
 80004ce:	4b12      	ldr	r3, [pc, #72]	; (8000518 <my_uart2_on+0x60>)
 80004d0:	6bda      	ldr	r2, [r3, #60]	; 0x3c
 80004d2:	4b11      	ldr	r3, [pc, #68]	; (8000518 <my_uart2_on+0x60>)
 80004d4:	2180      	movs	r1, #128	; 0x80
 80004d6:	0289      	lsls	r1, r1, #10
 80004d8:	430a      	orrs	r2, r1
 80004da:	63da      	str	r2, [r3, #60]	; 0x3c
	USART2->BRR 	= (uint16_t) ( my_sysclock / baudrate ) ;			// Activate clock for UART
 80004dc:	6839      	ldr	r1, [r7, #0]
 80004de:	6878      	ldr	r0, [r7, #4]
 80004e0:	f7ff fe12 	bl	8000108 <__udivsi3>
 80004e4:	0003      	movs	r3, r0
 80004e6:	b29a      	uxth	r2, r3
 80004e8:	4b0c      	ldr	r3, [pc, #48]	; (800051c <my_uart2_on+0x64>)
 80004ea:	60da      	str	r2, [r3, #12]
	USART2->CR1 	|=  USART_CR1_UE ;
 80004ec:	4b0b      	ldr	r3, [pc, #44]	; (800051c <my_uart2_on+0x64>)
 80004ee:	681a      	ldr	r2, [r3, #0]
 80004f0:	4b0a      	ldr	r3, [pc, #40]	; (800051c <my_uart2_on+0x64>)
 80004f2:	2101      	movs	r1, #1
 80004f4:	430a      	orrs	r2, r1
 80004f6:	601a      	str	r2, [r3, #0]
	USART2->CR1 	|=  USART_CR1_TE ;
 80004f8:	4b08      	ldr	r3, [pc, #32]	; (800051c <my_uart2_on+0x64>)
 80004fa:	681a      	ldr	r2, [r3, #0]
 80004fc:	4b07      	ldr	r3, [pc, #28]	; (800051c <my_uart2_on+0x64>)
 80004fe:	2108      	movs	r1, #8
 8000500:	430a      	orrs	r2, r1
 8000502:	601a      	str	r2, [r3, #0]
	USART2->CR1 	|=  USART_CR1_RE ;
 8000504:	4b05      	ldr	r3, [pc, #20]	; (800051c <my_uart2_on+0x64>)
 8000506:	681a      	ldr	r2, [r3, #0]
 8000508:	4b04      	ldr	r3, [pc, #16]	; (800051c <my_uart2_on+0x64>)
 800050a:	2104      	movs	r1, #4
 800050c:	430a      	orrs	r2, r1
 800050e:	601a      	str	r2, [r3, #0]
}
 8000510:	46c0      	nop			; (mov r8, r8)
 8000512:	46bd      	mov	sp, r7
 8000514:	b002      	add	sp, #8
 8000516:	bd80      	pop	{r7, pc}
 8000518:	40021000 	.word	0x40021000
 800051c:	40004400 	.word	0x40004400

08000520 <__libc_init_array>:
 8000520:	b570      	push	{r4, r5, r6, lr}
 8000522:	2600      	movs	r6, #0
 8000524:	4c0c      	ldr	r4, [pc, #48]	; (8000558 <__libc_init_array+0x38>)
 8000526:	4d0d      	ldr	r5, [pc, #52]	; (800055c <__libc_init_array+0x3c>)
 8000528:	1b64      	subs	r4, r4, r5
 800052a:	10a4      	asrs	r4, r4, #2
 800052c:	42a6      	cmp	r6, r4
 800052e:	d109      	bne.n	8000544 <__libc_init_array+0x24>
 8000530:	2600      	movs	r6, #0
 8000532:	f000 f819 	bl	8000568 <_init>
 8000536:	4c0a      	ldr	r4, [pc, #40]	; (8000560 <__libc_init_array+0x40>)
 8000538:	4d0a      	ldr	r5, [pc, #40]	; (8000564 <__libc_init_array+0x44>)
 800053a:	1b64      	subs	r4, r4, r5
 800053c:	10a4      	asrs	r4, r4, #2
 800053e:	42a6      	cmp	r6, r4
 8000540:	d105      	bne.n	800054e <__libc_init_array+0x2e>
 8000542:	bd70      	pop	{r4, r5, r6, pc}
 8000544:	00b3      	lsls	r3, r6, #2
 8000546:	58eb      	ldr	r3, [r5, r3]
 8000548:	4798      	blx	r3
 800054a:	3601      	adds	r6, #1
 800054c:	e7ee      	b.n	800052c <__libc_init_array+0xc>
 800054e:	00b3      	lsls	r3, r6, #2
 8000550:	58eb      	ldr	r3, [r5, r3]
 8000552:	4798      	blx	r3
 8000554:	3601      	adds	r6, #1
 8000556:	e7f2      	b.n	800053e <__libc_init_array+0x1e>
 8000558:	08000580 	.word	0x08000580
 800055c:	08000580 	.word	0x08000580
 8000560:	08000584 	.word	0x08000584
 8000564:	08000580 	.word	0x08000580

08000568 <_init>:
 8000568:	b5f8      	push	{r3, r4, r5, r6, r7, lr}
 800056a:	46c0      	nop			; (mov r8, r8)
 800056c:	bcf8      	pop	{r3, r4, r5, r6, r7}
 800056e:	bc08      	pop	{r3}
 8000570:	469e      	mov	lr, r3
 8000572:	4770      	bx	lr

08000574 <_fini>:
 8000574:	b5f8      	push	{r3, r4, r5, r6, r7, lr}
 8000576:	46c0      	nop			; (mov r8, r8)
 8000578:	bcf8      	pop	{r3, r4, r5, r6, r7}
 800057a:	bc08      	pop	{r3}
 800057c:	469e      	mov	lr, r3
 800057e:	4770      	bx	lr
